; Function Attrs: mustprogress nounwind uwtable
define dso_local void @_ZN4llvm4json4Path6reportENS_13StringLiteralE(ptr nocapture noundef nonnull readonly align 8 dereferenceable(24) %0, ptr %1, i64 %2) local_unnamed_addr #0 align 2 {
  br label %4

4:                                                ; preds = %4, %3
  %.011 = phi ptr [ %0, %3 ], [ %5, %4 ]
  %.0 = phi i32 [ 0, %3 ], [ %6, %4 ]
  %5 = load ptr, ptr %.011, align 8
  %.not = icmp eq ptr %5, null
  %6 = add i32 %.0, 1
  br i1 %.not, label %7, label %4, !llvm.loop !30

7:                                                ; preds = %4
  %8 = getelementptr inbounds nuw i8, ptr %.011, i64 8
  %9 = load i64, ptr %8, align 8
  %10 = inttoptr i64 %9 to ptr
  %11 = getelementptr inbounds nuw i8, ptr %10, i64 16
  store ptr %1, ptr %11, align 8
  %.sroa.2.0..sroa_idx = getelementptr inbounds i8, ptr %10, i64 24
  store i64 %2, ptr %.sroa.2.0..sroa_idx, align 8
  %12 = getelementptr inbounds nuw i8, ptr %10, i64 32
  %13 = zext i32 %.0 to i64
  %14 = getelementptr inbounds i8, ptr %10, i64 40
  %15 = load ptr, ptr %14, align 8
  %16 = load ptr, ptr %12, align 8
  %17 = ptrtoint ptr %15 to i64
  %18 = ptrtoint ptr %16 to i64
  %19 = sub i64 %17, %18
  %20 = ashr exact i64 %19, 4
  %21 = icmp ult i64 %20, %13
  br i1 %21, label %22, label %24

22:                                               ; preds = %7
  %23 = sub nuw nsw i64 %13, %20
  tail call void @_ZNSt6vectorIN4llvm4json4Path7SegmentESaIS3_EE17_M_default_appendEm(ptr noundef nonnull align 8 dereferenceable(24) %12, i64 noundef %23)
  %.pre = load ptr, ptr %12, align 8
  br label %_ZNSt6vectorIN4llvm4json4Path7SegmentESaIS3_EE6resizeEm.exit

24:                                               ; preds = %7
  %25 = icmp ugt i64 %20, %13
  br i1 %25, label %26, label %_ZNSt6vectorIN4llvm4json4Path7SegmentESaIS3_EE6resizeEm.exit

26:                                               ; preds = %24
  %27 = getelementptr inbounds %"class.llvm::json::Path::Segment", ptr %16, i64 %13
  %.not.i.i = icmp eq ptr %15, %27
  br i1 %.not.i.i, label %_ZNSt6vectorIN4llvm4json4Path7SegmentESaIS3_EE6resizeEm.exit, label %28

28:                                               ; preds = %26
  store ptr %27, ptr %14, align 8
  br label %_ZNSt6vectorIN4llvm4json4Path7SegmentESaIS3_EE6resizeEm.exit

_ZNSt6vectorIN4llvm4json4Path7SegmentESaIS3_EE6resizeEm.exit: ; preds = %22, %24, %26, %28
  %29 = phi ptr [ %.pre, %22 ], [ %16, %24 ], [ %16, %26 ], [ %16, %28 ]
  %30 = load ptr, ptr %0, align 8
  %.not1315 = icmp eq ptr %30, null
  br i1 %.not1315, label %._crit_edge, label %.lr.ph

.lr.ph:                                           ; preds = %_ZNSt6vectorIN4llvm4json4Path7SegmentESaIS3_EE6resizeEm.exit, %.lr.ph
  %.117 = phi ptr [ %33, %.lr.ph ], [ %0, %_ZNSt6vectorIN4llvm4json4Path7SegmentESaIS3_EE6resizeEm.exit ]
  %.sroa.014.016 = phi ptr [ %32, %.lr.ph ], [ %29, %_ZNSt6vectorIN4llvm4json4Path7SegmentESaIS3_EE6resizeEm.exit ]
  %31 = getelementptr inbounds nuw i8, ptr %.117, i64 8
  %32 = getelementptr inbounds i8, ptr %.sroa.014.016, i64 16
  tail call void @llvm.memcpy.p0.p0.i64(ptr noundef nonnull align 8 dereferenceable(12) %.sroa.014.016, ptr noundef nonnull align 8 dereferenceable(12) %31, i64 12, i1 false)
  %33 = load ptr, ptr %.117, align 8
  %34 = load ptr, ptr %33, align 8
  %.not13 = icmp eq ptr %34, null
  br i1 %.not13, label %._crit_edge, label %.lr.ph, !llvm.loop !31

._crit_edge:                                      ; preds = %.lr.ph, %_ZNSt6vectorIN4llvm4json4Path7SegmentESaIS3_EE6resizeEm.exit
  ret void
}